; Function Attrs: mustprogress uwtable
define void @_ZN7rocksdb25CacheWithSecondaryAdapter29StartAsyncLookupOnMySecondaryERNS_5Cache17AsyncLookupHandleE(ptr nocapture noundef nonnull readonly align 8 dereferenceable(184) %this, ptr noundef nonnull align 8 dereferenceable(74) %async_handle) local_unnamed_addr #0 align 2 personality ptr @__gxx_personality_v0 {
entry:
  %secondary_handle = alloca %"class.std::unique_ptr.17", align 8
  %secondary_cache_ = getelementptr inbounds i8, ptr %this, i64 72
  %0 = load ptr, ptr %secondary_cache_, align 8
  %helper = getelementptr inbounds i8, ptr %async_handle, i64 16
  %1 = load ptr, ptr %helper, align 8
  %create_context = getelementptr inbounds i8, ptr %async_handle, i64 24
  %2 = load ptr, ptr %create_context, align 8
  %found_dummy_entry = getelementptr inbounds i8, ptr %async_handle, i64 72
  %3 = load i8, ptr %found_dummy_entry, align 8
  %4 = and i8 %3, 1
  %tobool = icmp ne i8 %4, 0
  %stats = getelementptr inbounds i8, ptr %async_handle, i64 40
  %5 = load ptr, ptr %stats, align 8
  %kept_in_sec_cache = getelementptr inbounds i8, ptr %async_handle, i64 73
  %vtable = load ptr, ptr %0, align 8
  %vfn = getelementptr inbounds i8, ptr %vtable, i64 168
  %6 = load ptr, ptr %vfn, align 8
  call void %6(ptr nonnull sret(%"class.std::unique_ptr.17") align 8 %secondary_handle, ptr noundef nonnull align 8 dereferenceable(32) %0, ptr noundef nonnull align 8 dereferenceable(16) %async_handle, ptr noundef %1, ptr noundef %2, i1 noundef zeroext false, i1 noundef zeroext %tobool, ptr noundef %5, ptr noundef nonnull align 1 dereferenceable(1) %kept_in_sec_cache)
  %7 = load ptr, ptr %secondary_handle, align 8
  %cmp.i.not = icmp eq ptr %7, null
  br i1 %cmp.i.not, label %_ZNSt10unique_ptrIN7rocksdb26SecondaryCacheResultHandleESt14default_deleteIS1_EED2Ev.exit, label %if.end

if.end:                                           ; preds = %entry
  %pending_handle = getelementptr inbounds i8, ptr %async_handle, i64 56
  store ptr %7, ptr %pending_handle, align 8
  %8 = load ptr, ptr %secondary_cache_, align 8
  %pending_cache = getelementptr inbounds i8, ptr %async_handle, i64 64
  store ptr %8, ptr %pending_cache, align 8
  br label %_ZNSt10unique_ptrIN7rocksdb26SecondaryCacheResultHandleESt14default_deleteIS1_EED2Ev.exit

_ZNSt10unique_ptrIN7rocksdb26SecondaryCacheResultHandleESt14default_deleteIS1_EED2Ev.exit: ; preds = %if.end, %entry
  ret void
}